target datalayout = "e-m:e-p270:32:32-p271:32:32-p272:64:64-i64:64-i128:128-f80:128-n8:16:32:64-S128"
target triple = "x86_64-pc-linux-gnu"

@.str = private unnamed_addr constant [16 x i8] c"cgroup_common.c\00", align 1
@.str.3 = private unnamed_addr constant [40 x i8] c"%s: unable to open '%s' for writing: %m\00", align 1
@.str.8 = private unnamed_addr constant [53 x i8] c"%s: %s: %s:%d: %s: safe_write (%zu of %d) failed: %m\00", align 1
@plugin_type = external constant [0 x i8], align 1
@.str.9 = private unnamed_addr constant [56 x i8] c"%s: %s: %s:%d: %s: safe_write (%zu of %d) partial write\00", align 1
@__func__.common_file_write_content = private unnamed_addr constant [26 x i8] c"common_file_write_content\00", align 1
@.str.11 = private unnamed_addr constant [47 x i8] c"%s: unable to write %zu bytes to cgroup %s: %m\00", align 1

; Function Attrs: nounwind uwtable
define dso_local i32 @common_file_write_content(ptr noundef %0, ptr noundef %1, i64 noundef %2) #0 {
  %4 = alloca i32, align 4
  %5 = alloca ptr, align 8
  %6 = alloca ptr, align 8
  %7 = alloca i64, align 8
  %8 = alloca i32, align 4
  %9 = alloca i32, align 4
  %10 = alloca i64, align 8
  %11 = alloca ptr, align 8
  %12 = alloca i32, align 4
  store ptr %0, ptr %5, align 8
  store ptr %1, ptr %6, align 8
  store i64 %2, ptr %7, align 8
  call void @llvm.lifetime.start.p0(i64 4, ptr %8) #6
  %13 = load ptr, ptr %5, align 8
  %14 = call i32 (ptr, i32, ...) @open(ptr noundef %13, i32 noundef 1, i32 noundef 448)
  store i32 %14, ptr %8, align 4
  %15 = icmp slt i32 %14, 0
  br i1 %15, label %16, label %19

16:                                               ; preds = %3
  %17 = load ptr, ptr %5, align 8
  %18 = call i32 (ptr, ...) @error(ptr noundef @.str.3, ptr noundef @__func__.common_file_write_content, ptr noundef %17)
  store i32 -1, ptr %4, align 4
  store i32 1, ptr %9, align 4
  br label %98

19:                                               ; preds = %3
  br label %20

20:                                               ; preds = %19
  call void @llvm.lifetime.start.p0(i64 8, ptr %10) #6
  %21 = load i64, ptr %7, align 8
  store i64 %21, ptr %10, align 8
  call void @llvm.lifetime.start.p0(i64 8, ptr %11) #6
  %22 = load ptr, ptr %6, align 8
  store ptr %22, ptr %11, align 8
  call void @llvm.lifetime.start.p0(i64 4, ptr %12) #6
  br label %23

23:                                               ; preds = %83, %42, %20
  %24 = load i64, ptr %10, align 8
  %25 = icmp ugt i64 %24, 0
  br i1 %25, label %26, label %84

26:                                               ; preds = %23
  %27 = load i32, ptr %8, align 4
  %28 = load ptr, ptr %11, align 8
  %29 = load i64, ptr %10, align 8
  %30 = call i64 @write(i32 noundef %27, ptr noundef %28, i64 noundef %29)
  %31 = trunc i64 %30 to i32
  store i32 %31, ptr %12, align 4
  %32 = load i32, ptr %12, align 4
  %33 = icmp slt i32 %32, 0
  br i1 %33, label %34, label %57

34:                                               ; preds = %26
  %35 = call ptr @__errno_location() #7
  %36 = load i32, ptr %35, align 4
  %37 = icmp eq i32 %36, 11
  br i1 %37, label %42, label %38

38:                                               ; preds = %34
  %39 = call ptr @__errno_location() #7
  %40 = load i32, ptr %39, align 4
  %41 = icmp eq i32 %40, 4
  br i1 %41, label %42, label %43

42:                                               ; preds = %38, %34
  br label %23, !llvm.loop !16

43:                                               ; preds = %38
  br label %44

44:                                               ; preds = %43
  br label %45

45:                                               ; preds = %44
  %46 = call i32 @get_log_level()
  %47 = icmp sge i32 %46, 5
  br i1 %47, label %48, label %52

48:                                               ; preds = %45
  %49 = load i64, ptr %10, align 8
  %50 = load i64, ptr %7, align 8
  %51 = trunc i64 %50 to i32
  call void (i32, ptr, ...) @log_var(i32 noundef 5, ptr noundef @.str.8, ptr noundef @plugin_type, ptr noundef @__func__.common_file_write_content, ptr noundef @.str, i32 noundef 320, ptr noundef @__func__.common_file_write_content, i64 noundef %49, i32 noundef %51)
  br label %52

52:                                               ; preds = %48, %45
  br label %53

53:                                               ; preds = %52
  br label %54

54:                                               ; preds = %53
  br label %55

55:                                               ; preds = %54
  br label %56

56:                                               ; preds = %55
  store i32 10, ptr %9, align 4
  br label %85

57:                                               ; preds = %26
  %58 = load i32, ptr %12, align 4
  %59 = load ptr, ptr %11, align 8
  %60 = sext i32 %58 to i64
  %61 = getelementptr inbounds i8, ptr %59, i64 %60
  store ptr %61, ptr %11, align 8
  %62 = load i32, ptr %12, align 4
  %63 = sext i32 %62 to i64
  %64 = load i64, ptr %10, align 8
  %65 = sub i64 %64, %63
  store i64 %65, ptr %10, align 8
  %66 = load i64, ptr %10, align 8
  %67 = icmp ugt i64 %66, 0
  br i1 %67, label %68, label %82

68:                                               ; preds = %57
  br label %69

69:                                               ; preds = %68
  br label %70

70:                                               ; preds = %69
  %71 = call i32 @get_log_level()
  %72 = icmp sge i32 %71, 7
  br i1 %72, label %73, label %77

73:                                               ; preds = %70
  %74 = load i64, ptr %10, align 8
  %75 = load i64, ptr %7, align 8
  %76 = trunc i64 %75 to i32
  call void (i32, ptr, ...) @log_var(i32 noundef 7, ptr noundef @.str.9, ptr noundef @plugin_type, ptr noundef @__func__.common_file_write_content, ptr noundef @.str, i32 noundef 320, ptr noundef @__func__.common_file_write_content, i64 noundef %74, i32 noundef %76)
  br label %77

77:                                               ; preds = %73, %70
  br label %78

78:                                               ; preds = %77
  br label %79

79:                                               ; preds = %78
  br label %80

80:                                               ; preds = %79
  br label %81

81:                                               ; preds = %80
  br label %82

82:                                               ; preds = %81, %57
  br label %83

83:                                               ; preds = %82
  br label %23, !llvm.loop !16

84:                                               ; preds = %23
  store i32 0, ptr %9, align 4
  br label %85

85:                                               ; preds = %56, %84
  call void @llvm.lifetime.end.p0(i64 4, ptr %12) #6
  call void @llvm.lifetime.end.p0(i64 8, ptr %11) #6
  call void @llvm.lifetime.end.p0(i64 8, ptr %10) #6
  %86 = load i32, ptr %9, align 4
  switch i32 %86, label %98 [
    i32 0, label %87
    i32 10, label %92
  ]

87:                                               ; preds = %85
  br label %88

88:                                               ; preds = %87
  br label %89

89:                                               ; preds = %88
  %90 = load i32, ptr %8, align 4
  %91 = call i32 @close(i32 noundef %90)
  store i32 0, ptr %4, align 4
  store i32 1, ptr %9, align 4
  br label %98

92:                                               ; preds = %85
  %93 = load i64, ptr %7, align 8
  %94 = load ptr, ptr %5, align 8
  %95 = call i32 (ptr, ...) @error(ptr noundef @.str.11, ptr noundef @__func__.common_file_write_content, i64 noundef %93, ptr noundef %94)
  %96 = load i32, ptr %8, align 4
  %97 = call i32 @close(i32 noundef %96)
  store i32 -1, ptr %4, align 4
  store i32 1, ptr %9, align 4
  br label %98

98:                                               ; preds = %92, %89, %85, %16
  call void @llvm.lifetime.end.p0(i64 4, ptr %8) #6
  %99 = load i32, ptr %4, align 4
  ret i32 %99
}